target datalayout = "e-m:e-p270:32:32-p271:32:32-p272:64:64-i64:64-i128:128-f80:128-n8:16:32:64-S128"
target triple = "x86_64-pc-linux-gnu"

%"class.nanogui::Color" = type { %"struct.nanogui::Array.4" }
%"struct.nanogui::Array.4" = type { [4 x float] }
%"class.nanogui::Slider" = type { %"class.nanogui::Widget.base", float, %"class.std::function", %"class.std::function", %"struct.std::pair", %"struct.std::pair", %"class.nanogui::Color" }
%"class.nanogui::Widget.base" = type <{ %"class.nanogui::Object.base", [4 x i8], ptr, %"class.nanogui::ref", %"class.nanogui::ref.0", %"struct.nanogui::Array", %"struct.nanogui::Array", %"struct.nanogui::Array", %"class.std::vector", i8, i8, i8, i8, [4 x i8], %"class.std::__cxx11::basic_string", i32, float, i32 }>
%"class.nanogui::Object.base" = type <{ ptr, %"struct.std::atomic" }>
%"struct.std::atomic" = type { %"struct.std::__atomic_base" }
%"struct.std::__atomic_base" = type { i32 }
%"class.nanogui::ref" = type { ptr }
%"class.nanogui::ref.0" = type { ptr }
%"struct.nanogui::Array" = type { [2 x i32] }
%"class.std::vector" = type { %"struct.std::_Vector_base" }
%"struct.std::_Vector_base" = type { %"struct.std::_Vector_base<nanogui::Widget *, std::allocator<nanogui::Widget *>>::_Vector_impl" }
%"struct.std::_Vector_base<nanogui::Widget *, std::allocator<nanogui::Widget *>>::_Vector_impl" = type { %"struct.std::_Vector_base<nanogui::Widget *, std::allocator<nanogui::Widget *>>::_Vector_impl_data" }
%"struct.std::_Vector_base<nanogui::Widget *, std::allocator<nanogui::Widget *>>::_Vector_impl_data" = type { ptr, ptr, ptr }
%"class.std::__cxx11::basic_string" = type { %"struct.std::__cxx11::basic_string<char>::_Alloc_hider", i64, %union.anon }
%"struct.std::__cxx11::basic_string<char>::_Alloc_hider" = type { ptr }
%union.anon = type { i64, [8 x i8] }
%"class.std::function" = type { %"class.std::_Function_base", ptr }
%"class.std::_Function_base" = type { %"union.std::_Any_data", ptr }
%"union.std::_Any_data" = type { %"union.std::_Nocopy_types" }
%"union.std::_Nocopy_types" = type { { i64, i64 } }
%"struct.std::pair" = type { float, float }
%"class.nanogui::Widget" = type <{ %"class.nanogui::Object.base", [4 x i8], ptr, %"class.nanogui::ref", %"class.nanogui::ref.0", %"struct.nanogui::Array", %"struct.nanogui::Array", %"struct.nanogui::Array", %"class.std::vector", i8, i8, i8, i8, [4 x i8], %"class.std::__cxx11::basic_string", i32, float, i32, [4 x i8] }>

; Function Attrs: noreturn nounwind uwtable
define linkonce_odr hidden void @__clang_call_terminate(ptr noundef %0) #7 comdat {
  %2 = call ptr @__cxa_begin_catch(ptr %0) #11
  call void @_ZSt9terminatev() #12
  unreachable
}

; Function Attrs: mustprogress nounwind uwtable
define linkonce_odr dso_local noundef zeroext i1 @_ZNKSt14_Function_base8_M_emptyEv(ptr noundef nonnull align 8 dereferenceable(24) %0) #2 comdat align 2 {
  %2 = alloca ptr, align 8
  store ptr %0, ptr %2, align 8
  %3 = load ptr, ptr %2, align 8
  %4 = getelementptr inbounds %"class.std::_Function_base", ptr %3, i32 0, i32 1
  %5 = load ptr, ptr %4, align 8
  %6 = icmp ne ptr %5, null
  %7 = xor i1 %6, true
  ret i1 %7
}

; Function Attrs: mustprogress uwtable
define linkonce_odr dso_local void @_ZNKSt8functionIFvfEEclEf(ptr noundef nonnull align 8 dereferenceable(32) %0, float noundef %1) #0 comdat align 2 {
  %3 = alloca ptr, align 8
  %4 = alloca float, align 4
  store ptr %0, ptr %3, align 8
  store float %1, ptr %4, align 4
  %5 = load ptr, ptr %3, align 8
  %6 = call noundef zeroext i1 @_ZNKSt14_Function_base8_M_emptyEv(ptr noundef nonnull align 8 dereferenceable(24) %5)
  br i1 %6, label %7, label %8

7:                                                ; preds = %2
  call void @_ZSt25__throw_bad_function_callv() #13
  unreachable

8:                                                ; preds = %2
  %9 = getelementptr inbounds %"class.std::function", ptr %5, i32 0, i32 1
  %10 = load ptr, ptr %9, align 8
  %11 = getelementptr inbounds %"class.std::_Function_base", ptr %5, i32 0, i32 0
  call void %10(ptr noundef nonnull align 8 dereferenceable(16) %11, ptr noundef nonnull align 4 dereferenceable(4) %4)
  ret void
}

; Function Attrs: mustprogress nounwind uwtable
define linkonce_odr dso_local noundef zeroext i1 @_ZNKSt8functionIFvfEEcvbEv(ptr noundef nonnull align 8 dereferenceable(32) %0) #2 comdat align 2 personality ptr @__gxx_personality_v0 {
  %2 = alloca ptr, align 8
  store ptr %0, ptr %2, align 8
  %3 = load ptr, ptr %2, align 8
  %4 = invoke noundef zeroext i1 @_ZNKSt14_Function_base8_M_emptyEv(ptr noundef nonnull align 8 dereferenceable(24) %3)
          to label %5 unwind label %7

5:                                                ; preds = %1
  %6 = xor i1 %4, true
  ret i1 %6

7:                                                ; preds = %1
  %8 = landingpad { ptr, i32 }
          catch ptr null
  %9 = extractvalue { ptr, i32 } %8, 0
  call void @__clang_call_terminate(ptr %9) #12
  unreachable
}

; Function Attrs: mustprogress nounwind uwtable
define linkonce_odr dso_local noundef nonnull align 4 dereferenceable(4) ptr @_ZSt3minIfERKT_S2_S2_(ptr noundef nonnull align 4 dereferenceable(4) %0, ptr noundef nonnull align 4 dereferenceable(4) %1) #2 comdat {
  %3 = alloca ptr, align 8
  %4 = alloca ptr, align 8
  %5 = alloca ptr, align 8
  store ptr %0, ptr %4, align 8
  store ptr %1, ptr %5, align 8
  %6 = load ptr, ptr %5, align 8
  %7 = load float, ptr %6, align 4
  %8 = load ptr, ptr %4, align 8
  %9 = load float, ptr %8, align 4
  %10 = fcmp olt float %7, %9
  br i1 %10, label %11, label %13

11:                                               ; preds = %2
  %12 = load ptr, ptr %5, align 8
  store ptr %12, ptr %3, align 8
  br label %15

13:                                               ; preds = %2
  %14 = load ptr, ptr %4, align 8
  store ptr %14, ptr %3, align 8
  br label %15

15:                                               ; preds = %13, %11
  %16 = load ptr, ptr %3, align 8
  ret ptr %16
}

; Function Attrs: mustprogress nounwind uwtable
define linkonce_odr dso_local noundef nonnull align 4 dereferenceable(4) ptr @_ZSt3maxIfERKT_S2_S2_(ptr noundef nonnull align 4 dereferenceable(4) %0, ptr noundef nonnull align 4 dereferenceable(4) %1) #2 comdat {
  %3 = alloca ptr, align 8
  %4 = alloca ptr, align 8
  %5 = alloca ptr, align 8
  store ptr %0, ptr %4, align 8
  store ptr %1, ptr %5, align 8
  %6 = load ptr, ptr %4, align 8
  %7 = load float, ptr %6, align 4
  %8 = load ptr, ptr %5, align 8
  %9 = load float, ptr %8, align 4
  %10 = fcmp olt float %7, %9
  br i1 %10, label %11, label %13

11:                                               ; preds = %2
  %12 = load ptr, ptr %5, align 8
  store ptr %12, ptr %3, align 8
  br label %15

13:                                               ; preds = %2
  %14 = load ptr, ptr %4, align 8
  store ptr %14, ptr %3, align 8
  br label %15

15:                                               ; preds = %13, %11
  %16 = load ptr, ptr %3, align 8
  ret ptr %16
}

; Function Attrs: mustprogress nounwind uwtable
define linkonce_odr hidden noundef nonnull align 4 dereferenceable(4) ptr @_ZNK7nanogui5ArrayIiLm2EE1xILm2ETnNSt9enable_ifIXgeT_Li1EEiE4typeELi0EEERKiv(ptr noundef nonnull align 4 dereferenceable(8) %0) #2 comdat align 2 {
  %2 = alloca ptr, align 8
  store ptr %0, ptr %2, align 8
  %3 = load ptr, ptr %2, align 8
  %4 = getelementptr inbounds %"struct.nanogui::Array", ptr %3, i32 0, i32 0
  %5 = getelementptr inbounds [2 x i32], ptr %4, i64 0, i64 0
  ret ptr %5
}

; Function Attrs: mustprogress nounwind uwtable
define linkonce_odr hidden noundef nonnull align 4 dereferenceable(4) ptr @_ZN7nanogui5ArrayIiLm2EE1xILm2ETnNSt9enable_ifIXgeT_Li1EEiE4typeELi0EEERiv(ptr noundef nonnull align 4 dereferenceable(8) %0) #2 comdat align 2 {
  %2 = alloca ptr, align 8
  store ptr %0, ptr %2, align 8
  %3 = load ptr, ptr %2, align 8
  %4 = getelementptr inbounds %"struct.nanogui::Array", ptr %3, i32 0, i32 0
  %5 = getelementptr inbounds [2 x i32], ptr %4, i64 0, i64 0
  ret ptr %5
}

; Function Attrs: mustprogress nounwind uwtable
define linkonce_odr hidden noundef nonnull align 4 dereferenceable(4) ptr @_ZN7nanogui5ArrayIiLm2EE1yILm2ETnNSt9enable_ifIXgeT_Li2EEiE4typeELi0EEERiv(ptr noundef nonnull align 4 dereferenceable(8) %0) #2 comdat align 2 {
  %2 = alloca ptr, align 8
  store ptr %0, ptr %2, align 8
  %3 = load ptr, ptr %2, align 8
  %4 = getelementptr inbounds %"struct.nanogui::Array", ptr %3, i32 0, i32 0
  %5 = getelementptr inbounds [2 x i32], ptr %4, i64 0, i64 1
  ret ptr %5
}

; Function Attrs: mustprogress uwtable
define hidden noundef zeroext i1 @_ZN7nanogui6Slider16mouse_drag_eventERKNS_5ArrayIiLm2EEES4_ii(ptr noundef nonnull align 8 dereferenceable(240) %0, ptr noundef nonnull align 4 dereferenceable(8) %1, ptr noundef nonnull align 4 dereferenceable(8) %2, i32 noundef %3, i32 noundef %4) unnamed_addr #0 align 2 {
  %6 = alloca i1, align 1
  %7 = alloca ptr, align 8
  %8 = alloca ptr, align 8
  %9 = alloca ptr, align 8
  %10 = alloca i32, align 4
  %11 = alloca i32, align 4
  %12 = alloca float, align 4
  %13 = alloca float, align 4
  %14 = alloca float, align 4
  %15 = alloca float, align 4
  %16 = alloca float, align 4
  %17 = alloca float, align 4
  store ptr %0, ptr %7, align 8
  store ptr %1, ptr %8, align 8
  store ptr %2, ptr %9, align 8
  store i32 %3, ptr %10, align 4
  store i32 %4, ptr %11, align 4
  %18 = load ptr, ptr %7, align 8
  %19 = getelementptr inbounds %"class.nanogui::Widget", ptr %18, i32 0, i32 10
  %20 = load i8, ptr %19, align 1
  %21 = trunc i8 %20 to i1
  br i1 %21, label %23, label %22

22:                                               ; preds = %5
  store i1 false, ptr %6, align 1
  br label %88

23:                                               ; preds = %5
  %24 = getelementptr inbounds %"class.nanogui::Widget", ptr %18, i32 0, i32 6
  %25 = call noundef nonnull align 4 dereferenceable(4) ptr @_ZN7nanogui5ArrayIiLm2EE1yILm2ETnNSt9enable_ifIXgeT_Li2EEiE4typeELi0EEERiv(ptr noundef nonnull align 4 dereferenceable(8) %24)
  %26 = load i32, ptr %25, align 4
  %27 = sitofp i32 %26 to float
  %28 = fmul float %27, 0x3FD99999A0000000
  %29 = fptosi float %28 to i32
  %30 = sitofp i32 %29 to float
  store float %30, ptr %12, align 4
  store float 3.000000e+00, ptr %13, align 4
  %31 = load float, ptr %12, align 4
  %32 = fadd float %31, 3.000000e+00
  %33 = getelementptr inbounds %"class.nanogui::Widget", ptr %18, i32 0, i32 5
  %34 = call noundef nonnull align 4 dereferenceable(4) ptr @_ZN7nanogui5ArrayIiLm2EE1xILm2ETnNSt9enable_ifIXgeT_Li1EEiE4typeELi0EEERiv(ptr noundef nonnull align 4 dereferenceable(8) %33)
  %35 = load i32, ptr %34, align 4
  %36 = sitofp i32 %35 to float
  %37 = fadd float %32, %36
  %38 = fsub float %37, 1.000000e+00
  store float %38, ptr %14, align 4
  %39 = getelementptr inbounds %"class.nanogui::Widget", ptr %18, i32 0, i32 6
  %40 = call noundef nonnull align 4 dereferenceable(4) ptr @_ZN7nanogui5ArrayIiLm2EE1xILm2ETnNSt9enable_ifIXgeT_Li1EEiE4typeELi0EEERiv(ptr noundef nonnull align 4 dereferenceable(8) %39)
  %41 = load i32, ptr %40, align 4
  %42 = sitofp i32 %41 to float
  %43 = load float, ptr %12, align 4
  %44 = fadd float %43, 3.000000e+00
  %45 = call float @llvm.fmuladd.f32(float -2.000000e+00, float %44, float %42)
  store float %45, ptr %15, align 4
  %46 = load ptr, ptr %8, align 8
  %47 = call noundef nonnull align 4 dereferenceable(4) ptr @_ZNK7nanogui5ArrayIiLm2EE1xILm2ETnNSt9enable_ifIXgeT_Li1EEiE4typeELi0EEERKiv(ptr noundef nonnull align 4 dereferenceable(8) %46)
  %48 = load i32, ptr %47, align 4
  %49 = sitofp i32 %48 to float
  %50 = load float, ptr %14, align 4
  %51 = fsub float %49, %50
  %52 = load float, ptr %15, align 4
  %53 = fdiv float %51, %52
  store float %53, ptr %16, align 4
  %54 = getelementptr inbounds %"class.nanogui::Slider", ptr %18, i32 0, i32 1
  %55 = load float, ptr %54, align 4
  store float %55, ptr %17, align 4
  %56 = load float, ptr %16, align 4
  %57 = getelementptr inbounds %"class.nanogui::Slider", ptr %18, i32 0, i32 4
  %58 = getelementptr inbounds %"struct.std::pair", ptr %57, i32 0, i32 1
  %59 = load float, ptr %58, align 4
  %60 = getelementptr inbounds %"class.nanogui::Slider", ptr %18, i32 0, i32 4
  %61 = getelementptr inbounds %"struct.std::pair", ptr %60, i32 0, i32 0
  %62 = load float, ptr %61, align 8
  %63 = fsub float %59, %62
  %64 = getelementptr inbounds %"class.nanogui::Slider", ptr %18, i32 0, i32 4
  %65 = getelementptr inbounds %"struct.std::pair", ptr %64, i32 0, i32 0
  %66 = load float, ptr %65, align 8
  %67 = call float @llvm.fmuladd.f32(float %56, float %63, float %66)
  store float %67, ptr %16, align 4
  %68 = getelementptr inbounds %"class.nanogui::Slider", ptr %18, i32 0, i32 4
  %69 = getelementptr inbounds %"struct.std::pair", ptr %68, i32 0, i32 0
  %70 = call noundef nonnull align 4 dereferenceable(4) ptr @_ZSt3maxIfERKT_S2_S2_(ptr noundef nonnull align 4 dereferenceable(4) %16, ptr noundef nonnull align 4 dereferenceable(4) %69)
  %71 = getelementptr inbounds %"class.nanogui::Slider", ptr %18, i32 0, i32 4
  %72 = getelementptr inbounds %"struct.std::pair", ptr %71, i32 0, i32 1
  %73 = call noundef nonnull align 4 dereferenceable(4) ptr @_ZSt3minIfERKT_S2_S2_(ptr noundef nonnull align 4 dereferenceable(4) %70, ptr noundef nonnull align 4 dereferenceable(4) %72)
  %74 = load float, ptr %73, align 4
  %75 = getelementptr inbounds %"class.nanogui::Slider", ptr %18, i32 0, i32 1
  store float %74, ptr %75, align 4
  %76 = getelementptr inbounds %"class.nanogui::Slider", ptr %18, i32 0, i32 2
  %77 = call noundef zeroext i1 @_ZNKSt8functionIFvfEEcvbEv(ptr noundef nonnull align 8 dereferenceable(32) %76) #11
  br i1 %77, label %78, label %87

78:                                               ; preds = %23
  %79 = getelementptr inbounds %"class.nanogui::Slider", ptr %18, i32 0, i32 1
  %80 = load float, ptr %79, align 4
  %81 = load float, ptr %17, align 4
  %82 = fcmp une float %80, %81
  br i1 %82, label %83, label %87

83:                                               ; preds = %78
  %84 = getelementptr inbounds %"class.nanogui::Slider", ptr %18, i32 0, i32 2
  %85 = getelementptr inbounds %"class.nanogui::Slider", ptr %18, i32 0, i32 1
  %86 = load float, ptr %85, align 4
  call void @_ZNKSt8functionIFvfEEclEf(ptr noundef nonnull align 8 dereferenceable(32) %84, float noundef %86)
  br label %87

87:                                               ; preds = %83, %78, %23
  store i1 true, ptr %6, align 1
  br label %88

88:                                               ; preds = %87, %22
  %89 = load i1, ptr %6, align 1
  ret i1 %89
}