; Function Attrs: mustprogress uwtable
define hidden noundef zeroext i1 @_ZN7nanogui6Slider16mouse_drag_eventERKNS_5ArrayIiLm2EEES4_ii(ptr noundef nonnull align 8 dereferenceable(240) %0, ptr nocapture noundef nonnull readonly align 4 dereferenceable(8) %1, ptr nocapture nonnull readnone align 4 %2, i32 %3, i32 %4) unnamed_addr #4 align 2 personality ptr @__gxx_personality_v0 {
  %6 = alloca float, align 4
  %7 = getelementptr inbounds i8, ptr %0, i64 89
  %8 = load i8, ptr %7, align 1
  %9 = and i8 %8, 1
  %.not = icmp ne i8 %9, 0
  br i1 %.not, label %10, label %49

10:                                               ; preds = %5
  %11 = getelementptr inbounds i8, ptr %0, i64 48
  %12 = getelementptr inbounds i8, ptr %0, i64 52
  %13 = load i32, ptr %12, align 4
  %14 = sitofp i32 %13 to float
  %15 = fmul float %14, 0x3FD99999A0000000
  %16 = fptosi float %15 to i32
  %17 = sitofp i32 %16 to float
  %18 = fadd float %17, 3.000000e+00
  %19 = getelementptr inbounds i8, ptr %0, i64 40
  %20 = load i32, ptr %19, align 8
  %21 = sitofp i32 %20 to float
  %22 = fadd float %18, %21
  %23 = fadd float %22, -1.000000e+00
  %24 = load i32, ptr %11, align 8
  %25 = sitofp i32 %24 to float
  %26 = tail call float @llvm.fmuladd.f32(float %18, float -2.000000e+00, float %25)
  %27 = load i32, ptr %1, align 4
  %28 = sitofp i32 %27 to float
  %29 = fsub float %28, %23
  %30 = fdiv float %29, %26
  %31 = getelementptr inbounds i8, ptr %0, i64 140
  %32 = load float, ptr %31, align 4
  %33 = getelementptr inbounds i8, ptr %0, i64 208
  %34 = getelementptr inbounds i8, ptr %0, i64 212
  %35 = load float, ptr %34, align 4
  %36 = load float, ptr %33, align 8
  %37 = fsub float %35, %36
  %38 = tail call float @llvm.fmuladd.f32(float %30, float %37, float %36)
  %39 = fcmp olt float %38, %36
  %40 = select i1 %39, float %36, float %38
  %41 = fcmp olt float %35, %40
  %42 = select i1 %41, float %35, float %40
  store float %42, ptr %31, align 4
  %43 = getelementptr inbounds i8, ptr %0, i64 160
  %44 = load ptr, ptr %43, align 8
  %.not.i.i = icmp ne ptr %44, null
  %45 = fcmp une float %42, %32
  %or.cond = select i1 %.not.i.i, i1 %45, i1 false
  br i1 %or.cond, label %_ZNKSt8functionIFvfEEclEf.exit, label %49

_ZNKSt8functionIFvfEEclEf.exit:                   ; preds = %10
  %46 = getelementptr inbounds i8, ptr %0, i64 144
  call void @llvm.lifetime.start.p0(i64 4, ptr nonnull %6)
  store float %42, ptr %6, align 4
  %47 = getelementptr inbounds i8, ptr %0, i64 168
  %48 = load ptr, ptr %47, align 8
  call void %48(ptr noundef nonnull align 8 dereferenceable(16) %46, ptr noundef nonnull align 4 dereferenceable(4) %6)
  call void @llvm.lifetime.end.p0(i64 4, ptr nonnull %6)
  br label %49

49:                                               ; preds = %10, %_ZNKSt8functionIFvfEEclEf.exit, %5
  ret i1 %.not
}